target datalayout = "e-m:e-p270:32:32-p271:32:32-p272:64:64-i64:64-i128:128-f80:128-n8:16:32:64-S128"
target triple = "x86_64-pc-linux-gnu"

%struct.parser_st_hash_type = type { ptr, ptr }

@st_hashtype_num = internal constant %struct.parser_st_hash_type { ptr @rb_parser_st_numcmp, ptr @rb_parser_st_numhash }, align 8

; Function Attrs: nounwind sspstrong uwtable
define dso_local ptr @rb_parser_st_init_table_with_size(ptr noundef %0, i64 noundef %1) #0 {
  %3 = alloca ptr, align 8
  %4 = alloca ptr, align 8
  %5 = alloca i64, align 8
  %6 = alloca ptr, align 8
  %7 = alloca i32, align 4
  store ptr %0, ptr %4, align 8, !tbaa !12
  store i64 %1, ptr %5, align 8, !tbaa !14
  call void @llvm.lifetime.start.p0(i64 8, ptr %6) #14
  %8 = call noalias ptr @malloc(i64 noundef 56) #15
  store ptr %8, ptr %6, align 8, !tbaa !7
  %9 = load ptr, ptr %6, align 8, !tbaa !7
  %10 = icmp eq ptr %9, null
  br i1 %10, label %11, label %12

11:                                               ; preds = %2
  store ptr null, ptr %3, align 8
  store i32 1, ptr %7, align 4
  br label %22

12:                                               ; preds = %2
  %13 = load ptr, ptr %6, align 8, !tbaa !7
  %14 = load ptr, ptr %4, align 8, !tbaa !12
  %15 = load i64, ptr %5, align 8, !tbaa !14
  %16 = call ptr @rb_parser_st_init_existing_table_with_size(ptr noundef %13, ptr noundef %14, i64 noundef %15)
  %17 = icmp eq ptr %16, null
  br i1 %17, label %18, label %20

18:                                               ; preds = %12
  %19 = load ptr, ptr %6, align 8, !tbaa !7
  call void @free(ptr noundef %19) #14
  store ptr null, ptr %3, align 8
  store i32 1, ptr %7, align 4
  br label %22

20:                                               ; preds = %12
  %21 = load ptr, ptr %6, align 8, !tbaa !7
  store ptr %21, ptr %3, align 8
  store i32 1, ptr %7, align 4
  br label %22

22:                                               ; preds = %20, %18, %11
  call void @llvm.lifetime.end.p0(i64 8, ptr %6) #14
  %23 = load ptr, ptr %3, align 8
  ret ptr %23
}

; Function Attrs: nounwind sspstrong uwtable
define dso_local ptr @rb_parser_st_init_numtable_with_size(i64 noundef %0) #0 {
  %2 = alloca i64, align 8
  store i64 %0, ptr %2, align 8, !tbaa !14
  %3 = load i64, ptr %2, align 8, !tbaa !14
  %4 = call ptr @rb_parser_st_init_table_with_size(ptr noundef @st_hashtype_num, i64 noundef %3)
  ret ptr %4
}